target datalayout = "e-m:e-p270:32:32-p271:32:32-p272:64:64-i64:64-i128:128-f80:128-n8:16:32:64-S128"
target triple = "x86_64-pc-linux-gnu"

@BF_itoa64 = internal constant [65 x i8] c"./ABCDEFGHIJKLMNOPQRSTUVWXYZabcdefghijklmnopqrstuvwxyz0123456789\00", align 16

; Function Attrs: nounwind uwtable
define internal void @BF_encode(ptr noundef %0, ptr noundef %1, i32 noundef %2) #0 {
  %4 = alloca ptr, align 8
  %5 = alloca ptr, align 8
  %6 = alloca i32, align 4
  %7 = alloca ptr, align 8
  %8 = alloca ptr, align 8
  %9 = alloca ptr, align 8
  %10 = alloca i32, align 4
  %11 = alloca i32, align 4
  store ptr %0, ptr %4, align 8
  store ptr %1, ptr %5, align 8
  store i32 %2, ptr %6, align 4
  %12 = load ptr, ptr %5, align 8
  store ptr %12, ptr %7, align 8
  %13 = load ptr, ptr %7, align 8
  %14 = load i32, ptr %6, align 4
  %15 = sext i32 %14 to i64
  %16 = getelementptr inbounds i8, ptr %13, i64 %15
  store ptr %16, ptr %8, align 8
  %17 = load ptr, ptr %4, align 8
  store ptr %17, ptr %9, align 8
  br label %18

18:                                               ; preds = %93, %3
  %19 = load ptr, ptr %7, align 8
  %20 = getelementptr inbounds i8, ptr %19, i32 1
  store ptr %20, ptr %7, align 8
  %21 = load i8, ptr %19, align 1
  %22 = zext i8 %21 to i32
  store i32 %22, ptr %10, align 4
  %23 = load i32, ptr %10, align 4
  %24 = lshr i32 %23, 2
  %25 = zext i32 %24 to i64
  %26 = getelementptr inbounds [65 x i8], ptr @BF_itoa64, i64 0, i64 %25
  %27 = load i8, ptr %26, align 1
  %28 = load ptr, ptr %9, align 8
  %29 = getelementptr inbounds i8, ptr %28, i32 1
  store ptr %29, ptr %9, align 8
  store i8 %27, ptr %28, align 1
  %30 = load i32, ptr %10, align 4
  %31 = and i32 %30, 3
  %32 = shl i32 %31, 4
  store i32 %32, ptr %10, align 4
  %33 = load ptr, ptr %7, align 8
  %34 = load ptr, ptr %8, align 8
  %35 = icmp uge ptr %33, %34
  br i1 %35, label %36, label %43

36:                                               ; preds = %18
  %37 = load i32, ptr %10, align 4
  %38 = zext i32 %37 to i64
  %39 = getelementptr inbounds [65 x i8], ptr @BF_itoa64, i64 0, i64 %38
  %40 = load i8, ptr %39, align 1
  %41 = load ptr, ptr %9, align 8
  %42 = getelementptr inbounds i8, ptr %41, i32 1
  store ptr %42, ptr %9, align 8
  store i8 %40, ptr %41, align 1
  br label %97

43:                                               ; preds = %18
  %44 = load ptr, ptr %7, align 8
  %45 = getelementptr inbounds i8, ptr %44, i32 1
  store ptr %45, ptr %7, align 8
  %46 = load i8, ptr %44, align 1
  %47 = zext i8 %46 to i32
  store i32 %47, ptr %11, align 4
  %48 = load i32, ptr %11, align 4
  %49 = lshr i32 %48, 4
  %50 = load i32, ptr %10, align 4
  %51 = or i32 %50, %49
  store i32 %51, ptr %10, align 4
  %52 = load i32, ptr %10, align 4
  %53 = zext i32 %52 to i64
  %54 = getelementptr inbounds [65 x i8], ptr @BF_itoa64, i64 0, i64 %53
  %55 = load i8, ptr %54, align 1
  %56 = load ptr, ptr %9, align 8
  %57 = getelementptr inbounds i8, ptr %56, i32 1
  store ptr %57, ptr %9, align 8
  store i8 %55, ptr %56, align 1
  %58 = load i32, ptr %11, align 4
  %59 = and i32 %58, 15
  %60 = shl i32 %59, 2
  store i32 %60, ptr %10, align 4
  %61 = load ptr, ptr %7, align 8
  %62 = load ptr, ptr %8, align 8
  %63 = icmp uge ptr %61, %62
  br i1 %63, label %64, label %71

64:                                               ; preds = %43
  %65 = load i32, ptr %10, align 4
  %66 = zext i32 %65 to i64
  %67 = getelementptr inbounds [65 x i8], ptr @BF_itoa64, i64 0, i64 %66
  %68 = load i8, ptr %67, align 1
  %69 = load ptr, ptr %9, align 8
  %70 = getelementptr inbounds i8, ptr %69, i32 1
  store ptr %70, ptr %9, align 8
  store i8 %68, ptr %69, align 1
  br label %97

71:                                               ; preds = %43
  %72 = load ptr, ptr %7, align 8
  %73 = getelementptr inbounds i8, ptr %72, i32 1
  store ptr %73, ptr %7, align 8
  %74 = load i8, ptr %72, align 1
  %75 = zext i8 %74 to i32
  store i32 %75, ptr %11, align 4
  %76 = load i32, ptr %11, align 4
  %77 = lshr i32 %76, 6
  %78 = load i32, ptr %10, align 4
  %79 = or i32 %78, %77
  store i32 %79, ptr %10, align 4
  %80 = load i32, ptr %10, align 4
  %81 = zext i32 %80 to i64
  %82 = getelementptr inbounds [65 x i8], ptr @BF_itoa64, i64 0, i64 %81
  %83 = load i8, ptr %82, align 1
  %84 = load ptr, ptr %9, align 8
  %85 = getelementptr inbounds i8, ptr %84, i32 1
  store ptr %85, ptr %9, align 8
  store i8 %83, ptr %84, align 1
  %86 = load i32, ptr %11, align 4
  %87 = and i32 %86, 63
  %88 = zext i32 %87 to i64
  %89 = getelementptr inbounds [65 x i8], ptr @BF_itoa64, i64 0, i64 %88
  %90 = load i8, ptr %89, align 1
  %91 = load ptr, ptr %9, align 8
  %92 = getelementptr inbounds i8, ptr %91, i32 1
  store ptr %92, ptr %9, align 8
  store i8 %90, ptr %91, align 1
  br label %93

93:                                               ; preds = %71
  %94 = load ptr, ptr %7, align 8
  %95 = load ptr, ptr %8, align 8
  %96 = icmp ult ptr %94, %95
  br i1 %96, label %18, label %97

97:                                               ; preds = %93, %64, %36
  ret void
}