; Function Attrs: nofree norecurse nosync nounwind memory(write, argmem: readwrite, inaccessiblemem: none) uwtable
define internal fastcc void @BF_encode(ptr nocapture noundef writeonly %0, ptr nocapture noundef readonly %1) unnamed_addr #6 {
  %3 = load i8, ptr %1, align 1
  %4 = zext i8 %3 to i32
  %5 = lshr i32 %4, 2
  %6 = zext nneg i32 %5 to i64
  %7 = getelementptr inbounds [65 x i8], ptr @BF_itoa64, i64 0, i64 %6
  %8 = load i8, ptr %7, align 1
  store i8 %8, ptr %0, align 1
  %9 = shl nuw nsw i32 %4, 4
  %10 = and i32 %9, 48
  %11 = getelementptr inbounds i8, ptr %0, i64 1
  %.ptr2 = getelementptr i8, ptr %1, i64 1
  %12 = load i8, ptr %.ptr2, align 1
  %13 = zext i8 %12 to i32
  %14 = lshr i32 %13, 4
  %15 = or disjoint i32 %14, %10
  %16 = zext nneg i32 %15 to i64
  %17 = getelementptr inbounds [65 x i8], ptr @BF_itoa64, i64 0, i64 %16
  %18 = load i8, ptr %17, align 1
  %19 = getelementptr inbounds i8, ptr %0, i64 2
  store i8 %18, ptr %11, align 1
  %20 = shl nuw nsw i32 %13, 2
  %21 = and i32 %20, 60
  %invariant.gep = getelementptr i8, ptr %1, i64 2
  br label %22

22:                                               ; preds = %2, %22
  %23 = phi i32 [ %21, %2 ], [ %56, %22 ]
  %24 = phi ptr [ %19, %2 ], [ %54, %22 ]
  %.04 = phi ptr [ %0, %2 ], [ %37, %22 ]
  %.030.idx3 = phi i64 [ 0, %2 ], [ %.add35, %22 ]
  %gep = getelementptr i8, ptr %invariant.gep, i64 %.030.idx3
  %.add35 = add nuw nsw i64 %.030.idx3, 3
  %25 = load i8, ptr %gep, align 1
  %26 = zext i8 %25 to i32
  %27 = lshr i32 %26, 6
  %28 = or disjoint i32 %27, %23
  %29 = zext nneg i32 %28 to i64
  %30 = getelementptr inbounds [65 x i8], ptr @BF_itoa64, i64 0, i64 %29
  %31 = load i8, ptr %30, align 1
  %32 = getelementptr inbounds i8, ptr %.04, i64 3
  store i8 %31, ptr %24, align 1
  %33 = and i32 %26, 63
  %34 = zext nneg i32 %33 to i64
  %35 = getelementptr inbounds [65 x i8], ptr @BF_itoa64, i64 0, i64 %34
  %36 = load i8, ptr %35, align 1
  %37 = getelementptr inbounds i8, ptr %.04, i64 4
  store i8 %36, ptr %32, align 1
  %.030.ptr = getelementptr inbounds i8, ptr %1, i64 %.add35
  %38 = load i8, ptr %.030.ptr, align 1
  %39 = zext i8 %38 to i32
  %40 = lshr i32 %39, 2
  %41 = zext nneg i32 %40 to i64
  %42 = getelementptr inbounds [65 x i8], ptr @BF_itoa64, i64 0, i64 %41
  %43 = load i8, ptr %42, align 1
  store i8 %43, ptr %37, align 1
  %44 = shl nuw nsw i32 %39, 4
  %45 = and i32 %44, 48
  %46 = getelementptr inbounds i8, ptr %.04, i64 5
  %.ptr = getelementptr i8, ptr %.030.ptr, i64 1
  %47 = load i8, ptr %.ptr, align 1
  %48 = zext i8 %47 to i32
  %49 = lshr i32 %48, 4
  %50 = or disjoint i32 %49, %45
  %51 = zext nneg i32 %50 to i64
  %52 = getelementptr inbounds [65 x i8], ptr @BF_itoa64, i64 0, i64 %51
  %53 = load i8, ptr %52, align 1
  %54 = getelementptr inbounds i8, ptr %.04, i64 6
  store i8 %53, ptr %46, align 1
  %55 = shl nuw nsw i32 %48, 2
  %56 = and i32 %55, 60
  %.not38.not = icmp eq i64 %.add35, 21
  br i1 %.not38.not, label %.loopexit, label %22

.loopexit:                                        ; preds = %22
  %57 = zext nneg i32 %56 to i64
  %58 = getelementptr inbounds [65 x i8], ptr @BF_itoa64, i64 0, i64 %57
  %59 = load i8, ptr %58, align 4
  store i8 %59, ptr %54, align 1
  ret void
}